; Function Attrs: mustprogress uwtable
define hidden noundef range(i32 0, 6) i32 @_ZN12seq_rewriter12reduce_re_eqEP4exprS1_R7obj_refIS0_11ast_managerE(ptr noundef nonnull align 8 dereferenceable(497) %0, ptr noundef %1, ptr noundef %2, ptr noundef nonnull align 8 dereferenceable(16) %3) local_unnamed_addr #3 align 2 {
  %5 = getelementptr inbounds nuw i8, ptr %0, i64 72
  %6 = load i32, ptr %5, align 8, !tbaa !87
  %7 = getelementptr inbounds nuw i8, ptr %1, i64 4
  %8 = load i32, ptr %7, align 4
  %9 = and i32 %8, 65535
  %10 = icmp eq i32 %9, 0
  br i1 %10, label %11, label %_ZNK8seq_util3rex8is_emptyEPK4expr.exit.thread

11:                                               ; preds = %4
  %12 = getelementptr inbounds nuw i8, ptr %1, i64 16
  %13 = load ptr, ptr %12, align 8, !tbaa !202
  %14 = getelementptr inbounds nuw i8, ptr %13, i64 24
  %15 = load ptr, ptr %14, align 8, !tbaa !207
  %.not.i.i.i.i = icmp eq ptr %15, null
  br i1 %.not.i.i.i.i, label %_ZNK8seq_util3rex8is_emptyEPK4expr.exit.thread, label %_ZNK8seq_util3rex8is_emptyEPK4expr.exit

_ZNK8seq_util3rex8is_emptyEPK4expr.exit:          ; preds = %11
  %16 = load i32, ptr %15, align 8, !tbaa !210
  %17 = icmp eq i32 %16, %6
  %18 = getelementptr inbounds nuw i8, ptr %15, i64 4
  %19 = load i32, ptr %18, align 4
  %20 = icmp eq i32 %19, 35
  %21 = select i1 %17, i1 %20, i1 false
  %spec.select = select i1 %21, ptr %2, ptr %1
  %spec.select10 = select i1 %21, ptr %1, ptr %2
  br label %_ZNK8seq_util3rex8is_emptyEPK4expr.exit.thread

_ZNK8seq_util3rex8is_emptyEPK4expr.exit.thread:   ; preds = %_ZNK8seq_util3rex8is_emptyEPK4expr.exit, %11, %4
  %.09 = phi ptr [ %1, %4 ], [ %1, %11 ], [ %spec.select, %_ZNK8seq_util3rex8is_emptyEPK4expr.exit ]
  %.08 = phi ptr [ %2, %4 ], [ %2, %11 ], [ %spec.select10, %_ZNK8seq_util3rex8is_emptyEPK4expr.exit ]
  %22 = getelementptr inbounds nuw i8, ptr %.08, i64 4
  %23 = load i32, ptr %22, align 4
  %24 = and i32 %23, 65535
  %25 = icmp eq i32 %24, 0
  br i1 %25, label %26, label %_ZNK8seq_util3rex8is_emptyEPK4expr.exit3.thread

26:                                               ; preds = %_ZNK8seq_util3rex8is_emptyEPK4expr.exit.thread
  %27 = getelementptr inbounds nuw i8, ptr %.08, i64 16
  %28 = load ptr, ptr %27, align 8, !tbaa !202
  %29 = getelementptr inbounds nuw i8, ptr %28, i64 24
  %30 = load ptr, ptr %29, align 8, !tbaa !207
  %.not.i.i.i.i2 = icmp eq ptr %30, null
  br i1 %.not.i.i.i.i2, label %_ZNK8seq_util3rex8is_emptyEPK4expr.exit3.thread, label %_ZNK8seq_util3rex8is_emptyEPK4expr.exit3

_ZNK8seq_util3rex8is_emptyEPK4expr.exit3:         ; preds = %26
  %31 = load i32, ptr %30, align 8, !tbaa !210
  %32 = icmp eq i32 %31, %6
  %33 = getelementptr inbounds nuw i8, ptr %30, i64 4
  %34 = load i32, ptr %33, align 4
  %35 = icmp eq i32 %34, 35
  %36 = select i1 %32, i1 %35, i1 false
  br i1 %36, label %37, label %_ZNK8seq_util3rex8is_emptyEPK4expr.exit3.thread

37:                                               ; preds = %_ZNK8seq_util3rex8is_emptyEPK4expr.exit3
  %38 = tail call noundef i32 @_ZN12seq_rewriter18reduce_re_is_emptyEP4exprR7obj_refIS0_11ast_managerE(ptr noundef nonnull align 8 dereferenceable(497) %0, ptr noundef %.09, ptr noundef nonnull align 8 dereferenceable(16) %3)
  br label %_ZNK8seq_util3rex8is_emptyEPK4expr.exit3.thread

_ZNK8seq_util3rex8is_emptyEPK4expr.exit3.thread:  ; preds = %26, %_ZNK8seq_util3rex8is_emptyEPK4expr.exit.thread, %_ZNK8seq_util3rex8is_emptyEPK4expr.exit3, %37
  %.0 = phi i32 [ %38, %37 ], [ 5, %_ZNK8seq_util3rex8is_emptyEPK4expr.exit3 ], [ 5, %_ZNK8seq_util3rex8is_emptyEPK4expr.exit.thread ], [ 5, %26 ]
  ret i32 %.0
}